target datalayout = "e-m:e-p270:32:32-p271:32:32-p272:64:64-i64:64-i128:128-f80:128-n8:16:32:64-S128"
target triple = "x86_64-pc-linux-gnu"

%class.HdrSeq = type { %class.NumberSeq, ptr }
%class.NumberSeq = type { %class.AbsSeq, double, double }
%class.AbsSeq = type { ptr, i32, double, double, double, double, double }

@_ZTV6HdrSeq = hidden unnamed_addr constant { [8 x ptr] } { [8 x ptr] [ptr null, ptr null, ptr @_ZNK6AbsSeq5totalEv, ptr @_ZN6HdrSeq3addEd, ptr @_ZNK9NumberSeq7maximumEv, ptr @_ZNK9NumberSeq4lastEv, ptr @_ZN6AbsSeq4dumpEv, ptr @_ZN9NumberSeq7dump_onEP12outputStream] }, align 8

; Function Attrs: mustprogress nounwind uwtable
define hidden void @_ZN6HdrSeqD2Ev(ptr noundef nonnull align 8 dereferenceable(80) %0) unnamed_addr #1 align 2 {
  %2 = alloca ptr, align 8
  %3 = alloca i32, align 4
  %4 = alloca ptr, align 8
  store ptr %0, ptr %2, align 8
  %5 = load ptr, ptr %2, align 8
  store ptr getelementptr inbounds inrange(-16, 48) ({ [8 x ptr] }, ptr @_ZTV6HdrSeq, i32 0, i32 0, i32 2), ptr %5, align 8
  store i32 0, ptr %3, align 4
  br label %6

6:                                                ; preds = %21, %1
  %7 = load i32, ptr %3, align 4
  %8 = icmp slt i32 %7, 24
  br i1 %8, label %9, label %24

9:                                                ; preds = %6
  %10 = getelementptr inbounds %class.HdrSeq, ptr %5, i32 0, i32 1
  %11 = load ptr, ptr %10, align 8
  %12 = load i32, ptr %3, align 4
  %13 = sext i32 %12 to i64
  %14 = getelementptr inbounds ptr, ptr %11, i64 %13
  %15 = load ptr, ptr %14, align 8
  store ptr %15, ptr %4, align 8
  %16 = load ptr, ptr %4, align 8
  %17 = icmp ne ptr %16, null
  br i1 %17, label %18, label %20

18:                                               ; preds = %9
  %19 = load ptr, ptr %4, align 8
  call void @_Z8FreeHeapPv(ptr noundef %19)
  br label %20

20:                                               ; preds = %18, %9
  br label %21

21:                                               ; preds = %20
  %22 = load i32, ptr %3, align 4
  %23 = add nsw i32 %22, 1
  store i32 %23, ptr %3, align 4
  br label %6, !llvm.loop !8

24:                                               ; preds = %6
  %25 = getelementptr inbounds %class.HdrSeq, ptr %5, i32 0, i32 1
  %26 = load ptr, ptr %25, align 8
  call void @_Z8FreeHeapPv(ptr noundef %26)
  ret void
}