; Function Attrs: mustprogress nounwind uwtable
define hidden void @_ZN6HdrSeqD2Ev(ptr nocapture noundef nonnull align 8 dereferenceable(80) %0) unnamed_addr #0 align 2 {
  store ptr getelementptr inbounds inrange(-16, 48) (i8, ptr @_ZTV6HdrSeq, i64 16), ptr %0, align 8
  %2 = getelementptr inbounds i8, ptr %0, i64 72
  br label %3

3:                                                ; preds = %1, %8
  %indvars.iv = phi i64 [ 0, %1 ], [ %indvars.iv.next, %8 ]
  %4 = load ptr, ptr %2, align 8
  %5 = getelementptr inbounds ptr, ptr %4, i64 %indvars.iv
  %6 = load ptr, ptr %5, align 8
  %.not = icmp eq ptr %6, null
  br i1 %.not, label %8, label %7

7:                                                ; preds = %3
  tail call void @_Z8FreeHeapPv(ptr noundef nonnull %6) #9
  br label %8

8:                                                ; preds = %3, %7
  %indvars.iv.next = add nuw nsw i64 %indvars.iv, 1
  %exitcond.not = icmp eq i64 %indvars.iv.next, 24
  br i1 %exitcond.not, label %9, label %3, !llvm.loop !8

9:                                                ; preds = %8
  %10 = load ptr, ptr %2, align 8
  tail call void @_Z8FreeHeapPv(ptr noundef %10) #9
  ret void
}